target datalayout = "e-m:e-p270:32:32-p271:32:32-p272:64:64-i64:64-i128:128-f80:128-n8:16:32:64-S128"
target triple = "x86_64-unknown-linux-gnu"

%"class.std::__cxx11::basic_string" = type { %"struct.std::__cxx11::basic_string<char>::_Alloc_hider", i64, %union.anon }
%"struct.std::__cxx11::basic_string<char>::_Alloc_hider" = type { ptr }
%union.anon = type { i64, [8 x i8] }
%"struct.std::__detail::_Hash_node_base" = type { ptr }
%"struct.std::__detail::_Prime_rehash_policy" = type { float, i64 }
%"struct.std::atomic.112" = type { %"struct.std::__atomic_base.113" }
%"struct.std::__atomic_base.113" = type { i64 }
%"class.rocksdb::Slice" = type { ptr, i64 }
%"class.rocksdb::InternalKeyComparator" = type { %"class.rocksdb::CompareInterface", %"class.rocksdb::UserComparatorWrapper" }
%"class.rocksdb::CompareInterface" = type { ptr }
%"class.rocksdb::UserComparatorWrapper" = type { ptr }
%"class.std::__shared_count" = type { ptr }
%"class.std::shared_ptr.17" = type { %"class.std::__shared_ptr.18" }
%"class.std::__shared_ptr.18" = type { ptr, %"class.std::__shared_count" }
%"struct.rocksdb::MutableCFOptions" = type { i64, i32, i64, double, i8, i64, i64, i64, %"class.std::shared_ptr.17", double, i8, i64, i64, i32, i32, i32, i64, i8, i64, i32, i64, double, i64, i64, %"class.std::vector.34", %"struct.rocksdb::CompactionOptionsFIFO", %"class.rocksdb::CompactionOptionsUniversal", i8, i64, i64, i8, i8, double, double, i64, i32, i8, i64, i8, i8, i8, i8, i8, [3 x i8], %"struct.rocksdb::CompressionOptions", %"struct.rocksdb::CompressionOptions", i8, i32, i8, i64, %"class.std::vector.44", i32, i32, %"class.std::vector.49" }
%"class.std::vector.34" = type { %"struct.std::_Vector_base.35" }
%"struct.std::_Vector_base.35" = type { %"struct.std::_Vector_base<int, std::allocator<int>>::_Vector_impl" }
%"struct.std::_Vector_base<int, std::allocator<int>>::_Vector_impl" = type { %"struct.std::_Vector_base<int, std::allocator<int>>::_Vector_impl_data" }
%"struct.std::_Vector_base<int, std::allocator<int>>::_Vector_impl_data" = type { ptr, ptr, ptr }
%"struct.rocksdb::CompactionOptionsFIFO" = type { i64, i8, i64, %"class.std::vector.39" }
%"class.std::vector.39" = type { %"struct.std::_Vector_base.40" }
%"struct.std::_Vector_base.40" = type { %"struct.std::_Vector_base<rocksdb::FileTemperatureAge, std::allocator<rocksdb::FileTemperatureAge>>::_Vector_impl" }
%"struct.std::_Vector_base<rocksdb::FileTemperatureAge, std::allocator<rocksdb::FileTemperatureAge>>::_Vector_impl" = type { %"struct.std::_Vector_base<rocksdb::FileTemperatureAge, std::allocator<rocksdb::FileTemperatureAge>>::_Vector_impl_data" }
%"struct.std::_Vector_base<rocksdb::FileTemperatureAge, std::allocator<rocksdb::FileTemperatureAge>>::_Vector_impl_data" = type { ptr, ptr, ptr }
%"class.rocksdb::CompactionOptionsUniversal" = type <{ i32, i32, i32, i32, i32, i32, i8, i8, [2 x i8] }>
%"struct.rocksdb::CompressionOptions" = type <{ i32, i32, i32, i32, i32, i32, i8, [7 x i8], i64, i8, [3 x i8], i32, i8, [7 x i8] }>
%"class.std::vector.44" = type { %"struct.std::_Vector_base.45" }
%"struct.std::_Vector_base.45" = type { %"struct.std::_Vector_base<rocksdb::CompressionType, std::allocator<rocksdb::CompressionType>>::_Vector_impl" }
%"struct.std::_Vector_base<rocksdb::CompressionType, std::allocator<rocksdb::CompressionType>>::_Vector_impl" = type { %"struct.std::_Vector_base<rocksdb::CompressionType, std::allocator<rocksdb::CompressionType>>::_Vector_impl_data" }
%"struct.std::_Vector_base<rocksdb::CompressionType, std::allocator<rocksdb::CompressionType>>::_Vector_impl_data" = type { ptr, ptr, ptr }
%"class.std::vector.49" = type { %"struct.std::_Vector_base.50" }
%"struct.std::_Vector_base.50" = type { %"struct.std::_Vector_base<unsigned long, std::allocator<unsigned long>>::_Vector_impl" }
%"struct.std::_Vector_base<unsigned long, std::allocator<unsigned long>>::_Vector_impl" = type { %"struct.std::_Vector_base<unsigned long, std::allocator<unsigned long>>::_Vector_impl_data" }
%"struct.std::_Vector_base<unsigned long, std::allocator<unsigned long>>::_Vector_impl_data" = type { ptr, ptr, ptr }
%union.pthread_mutex_t = type { %struct.__pthread_mutex_s }
%struct.__pthread_mutex_s = type { i32, i32, i32, i32, i32, i16, i16, %struct.__pthread_internal_list }
%struct.__pthread_internal_list = type { ptr, ptr }
%"class.rocksdb::autovector" = type { i64, [64 x i8], ptr, %"class.std::vector.49" }
%"struct.std::_Rb_tree_header" = type { %"struct.std::_Rb_tree_node_base", i64 }
%"struct.std::_Rb_tree_node_base" = type { i32, ptr, ptr, ptr }
%"struct.std::atomic.168" = type { %"struct.std::__atomic_base.169" }
%"struct.std::__atomic_base.169" = type { i32 }
%"class.std::mutex" = type { %"class.std::__mutex_base" }
%"class.std::__mutex_base" = type { %union.pthread_mutex_t }
%"struct.std::atomic.114" = type { %"struct.std::__atomic_base.115" }
%"struct.std::__atomic_base.115" = type { i8 }
%"class.rocksdb::VersionEdit" = type { i32, %"class.std::__cxx11::basic_string", %"class.std::__cxx11::basic_string", i64, i64, i64, i32, i64, i64, i8, i8, i8, i8, i8, i8, i8, i8, i8, %"class.std::vector.420", %"class.std::set", %"class.std::vector.432", %"class.std::vector.437", %"class.std::vector.442", %"class.std::vector.447", %"class.rocksdb::WalDeletion", i32, i8, i8, %"class.std::__cxx11::basic_string", i8, i32, %"class.std::__cxx11::basic_string", i8, %"class.rocksdb::autovector" }
%"class.std::vector.420" = type { %"struct.std::_Vector_base.421" }
%"struct.std::_Vector_base.421" = type { %"struct.std::_Vector_base<std::pair<int, rocksdb::InternalKey>, std::allocator<std::pair<int, rocksdb::InternalKey>>>::_Vector_impl" }
%"struct.std::_Vector_base<std::pair<int, rocksdb::InternalKey>, std::allocator<std::pair<int, rocksdb::InternalKey>>>::_Vector_impl" = type { %"struct.std::_Vector_base<std::pair<int, rocksdb::InternalKey>, std::allocator<std::pair<int, rocksdb::InternalKey>>>::_Vector_impl_data" }
%"struct.std::_Vector_base<std::pair<int, rocksdb::InternalKey>, std::allocator<std::pair<int, rocksdb::InternalKey>>>::_Vector_impl_data" = type { ptr, ptr, ptr }
%"class.std::set" = type { %"class.std::_Rb_tree.425" }
%"class.std::_Rb_tree.425" = type { %"struct.std::_Rb_tree<std::pair<int, unsigned long>, std::pair<int, unsigned long>, std::_Identity<std::pair<int, unsigned long>>, std::less<std::pair<int, unsigned long>>>::_Rb_tree_impl" }
%"struct.std::_Rb_tree<std::pair<int, unsigned long>, std::pair<int, unsigned long>, std::_Identity<std::pair<int, unsigned long>>, std::less<std::pair<int, unsigned long>>>::_Rb_tree_impl" = type { %"struct.std::_Rb_tree_key_compare.429", %"struct.std::_Rb_tree_header" }
%"struct.std::_Rb_tree_key_compare.429" = type { %"struct.std::less.430" }
%"struct.std::less.430" = type { i8 }
%"class.std::vector.432" = type { %"struct.std::_Vector_base.433" }
%"struct.std::_Vector_base.433" = type { %"struct.std::_Vector_base<std::pair<int, rocksdb::FileMetaData>, std::allocator<std::pair<int, rocksdb::FileMetaData>>>::_Vector_impl" }
%"struct.std::_Vector_base<std::pair<int, rocksdb::FileMetaData>, std::allocator<std::pair<int, rocksdb::FileMetaData>>>::_Vector_impl" = type { %"struct.std::_Vector_base<std::pair<int, rocksdb::FileMetaData>, std::allocator<std::pair<int, rocksdb::FileMetaData>>>::_Vector_impl_data" }
%"struct.std::_Vector_base<std::pair<int, rocksdb::FileMetaData>, std::allocator<std::pair<int, rocksdb::FileMetaData>>>::_Vector_impl_data" = type { ptr, ptr, ptr }
%"class.std::vector.437" = type { %"struct.std::_Vector_base.438" }
%"struct.std::_Vector_base.438" = type { %"struct.std::_Vector_base<rocksdb::BlobFileAddition, std::allocator<rocksdb::BlobFileAddition>>::_Vector_impl" }
%"struct.std::_Vector_base<rocksdb::BlobFileAddition, std::allocator<rocksdb::BlobFileAddition>>::_Vector_impl" = type { %"struct.std::_Vector_base<rocksdb::BlobFileAddition, std::allocator<rocksdb::BlobFileAddition>>::_Vector_impl_data" }
%"struct.std::_Vector_base<rocksdb::BlobFileAddition, std::allocator<rocksdb::BlobFileAddition>>::_Vector_impl_data" = type { ptr, ptr, ptr }
%"class.std::vector.442" = type { %"struct.std::_Vector_base.443" }
%"struct.std::_Vector_base.443" = type { %"struct.std::_Vector_base<rocksdb::BlobFileGarbage, std::allocator<rocksdb::BlobFileGarbage>>::_Vector_impl" }
%"struct.std::_Vector_base<rocksdb::BlobFileGarbage, std::allocator<rocksdb::BlobFileGarbage>>::_Vector_impl" = type { %"struct.std::_Vector_base<rocksdb::BlobFileGarbage, std::allocator<rocksdb::BlobFileGarbage>>::_Vector_impl_data" }
%"struct.std::_Vector_base<rocksdb::BlobFileGarbage, std::allocator<rocksdb::BlobFileGarbage>>::_Vector_impl_data" = type { ptr, ptr, ptr }
%"class.std::vector.447" = type { %"struct.std::_Vector_base.448" }
%"struct.std::_Vector_base.448" = type { %"struct.std::_Vector_base<rocksdb::WalAddition, std::allocator<rocksdb::WalAddition>>::_Vector_impl" }
%"struct.std::_Vector_base<rocksdb::WalAddition, std::allocator<rocksdb::WalAddition>>::_Vector_impl" = type { %"struct.std::_Vector_base<rocksdb::WalAddition, std::allocator<rocksdb::WalAddition>>::_Vector_impl_data" }
%"struct.std::_Vector_base<rocksdb::WalAddition, std::allocator<rocksdb::WalAddition>>::_Vector_impl_data" = type { ptr, ptr, ptr }
%"class.rocksdb::WalDeletion" = type { i64 }
%"class.rocksdb::autovector.521" = type { i64, [64 x i8], ptr, %"class.std::vector.522" }
%"class.std::vector.522" = type { %"struct.std::_Vector_base.523" }
%"struct.std::_Vector_base.523" = type { %"struct.std::_Vector_base<rocksdb::MemTable *, std::allocator<rocksdb::MemTable *>>::_Vector_impl" }
%"struct.std::_Vector_base<rocksdb::MemTable *, std::allocator<rocksdb::MemTable *>>::_Vector_impl" = type { %"struct.std::_Vector_base<rocksdb::MemTable *, std::allocator<rocksdb::MemTable *>>::_Vector_impl_data" }
%"struct.std::_Vector_base<rocksdb::MemTable *, std::allocator<rocksdb::MemTable *>>::_Vector_impl_data" = type { ptr, ptr, ptr }
%"struct.rocksdb::SuperVersion" = type { ptr, ptr, ptr, ptr, %"struct.rocksdb::MutableCFOptions", i64, i32, %"class.std::__cxx11::basic_string", %"struct.std::atomic.168", %"class.rocksdb::autovector.521" }
%"class.rocksdb::Arena" = type { %"class.rocksdb::Allocator", [8 x i8], [2048 x i8], i64, %"class.std::deque.745", %"class.std::deque.751", i64, ptr, ptr, i64, i64, i64, ptr }
%"class.rocksdb::Allocator" = type { ptr }
%"class.std::deque.745" = type { %"class.std::_Deque_base.746" }
%"class.std::_Deque_base.746" = type { %"struct.std::_Deque_base<std::unique_ptr<char[]>, std::allocator<std::unique_ptr<char[]>>>::_Deque_impl" }
%"struct.std::_Deque_base<std::unique_ptr<char[]>, std::allocator<std::unique_ptr<char[]>>>::_Deque_impl" = type { %"struct.std::_Deque_base<std::unique_ptr<char[]>, std::allocator<std::unique_ptr<char[]>>>::_Deque_impl_data" }
%"struct.std::_Deque_base<std::unique_ptr<char[]>, std::allocator<std::unique_ptr<char[]>>>::_Deque_impl_data" = type { ptr, i64, %"struct.std::_Deque_iterator.750", %"struct.std::_Deque_iterator.750" }
%"struct.std::_Deque_iterator.750" = type { ptr, ptr, ptr, ptr }
%"class.std::deque.751" = type { %"class.std::_Deque_base.752" }
%"class.std::_Deque_base.752" = type { %"struct.std::_Deque_base<rocksdb::MemMapping, std::allocator<rocksdb::MemMapping>>::_Deque_impl" }
%"struct.std::_Deque_base<rocksdb::MemMapping, std::allocator<rocksdb::MemMapping>>::_Deque_impl" = type { %"struct.std::_Deque_base<rocksdb::MemMapping, std::allocator<rocksdb::MemMapping>>::_Deque_impl_data" }
%"struct.std::_Deque_base<rocksdb::MemMapping, std::allocator<rocksdb::MemMapping>>::_Deque_impl_data" = type { ptr, i64, %"struct.std::_Deque_iterator.756", %"struct.std::_Deque_iterator.756" }
%"struct.std::_Deque_iterator.756" = type { ptr, ptr, ptr, ptr }
%"class.rocksdb::MemTable" = type { %"struct.rocksdb::MemTable::KeyComparator", %"struct.rocksdb::ImmutableMemTableOptions", i32, i64, %"class.rocksdb::AllocTracker", [8 x i8], %"class.rocksdb::ConcurrentArena", %"class.std::unique_ptr.853", %"class.std::unique_ptr.853", %"struct.std::atomic.114", %"struct.std::atomic.112", %"struct.std::atomic.112", %"struct.std::atomic.112", %"struct.std::atomic.112", %"struct.std::atomic.112", i8, i8, i64, %"class.rocksdb::VersionEdit", %"struct.std::atomic.112", %"struct.std::atomic.112", i64, i64, %"struct.std::atomic.112", %"class.std::vector.861", ptr, %"class.std::unique_ptr.866", %"struct.std::atomic.874", ptr, ptr, %"class.std::unordered_map.875", %"struct.std::atomic.112", i64, i64, %"struct.std::atomic.112", i32, %"class.std::unique_ptr.893", i64, i8, %"class.rocksdb::Slice", %"class.std::unique_ptr.901", %"class.std::mutex", %"class.rocksdb::CoreLocalArray.909", [8 x i8] }
%"struct.rocksdb::MemTable::KeyComparator" = type { %"class.rocksdb::MemTableRep::KeyComparator", %"class.rocksdb::InternalKeyComparator" }
%"class.rocksdb::MemTableRep::KeyComparator" = type { ptr }
%"struct.rocksdb::ImmutableMemTableOptions" = type { i64, i32, i64, i8, i8, i64, ptr, i64, ptr, ptr, ptr, i8, i32 }
%"class.rocksdb::AllocTracker" = type <{ ptr, %"struct.std::atomic.112", i8, i8, [6 x i8] }>
%"class.rocksdb::ConcurrentArena" = type { %"class.rocksdb::Allocator", [56 x i8], i64, %"class.rocksdb::CoreLocalArray", [8 x i8], %"class.rocksdb::Arena", %"class.rocksdb::SpinMutex", %"struct.std::atomic.112", %"struct.std::atomic.112", %"struct.std::atomic.112", [56 x i8], [8 x i8] }
%"class.rocksdb::CoreLocalArray" = type <{ %"class.std::unique_ptr.845", i32, [4 x i8] }>
%"class.std::unique_ptr.845" = type { %"struct.std::__uniq_ptr_data.846" }
%"struct.std::__uniq_ptr_data.846" = type { %"class.std::__uniq_ptr_impl.847" }
%"class.std::__uniq_ptr_impl.847" = type { %"class.std::tuple.848" }
%"class.std::tuple.848" = type { %"struct.std::_Tuple_impl.849" }
%"struct.std::_Tuple_impl.849" = type { %"struct.std::_Head_base.852" }
%"struct.std::_Head_base.852" = type { ptr }
%"class.rocksdb::SpinMutex" = type { %"struct.std::atomic.114" }
%"class.std::unique_ptr.853" = type { %"struct.std::__uniq_ptr_data.854" }
%"struct.std::__uniq_ptr_data.854" = type { %"class.std::__uniq_ptr_impl.855" }
%"class.std::__uniq_ptr_impl.855" = type { %"class.std::tuple.856" }
%"class.std::tuple.856" = type { %"struct.std::_Tuple_impl.857" }
%"struct.std::_Tuple_impl.857" = type { %"struct.std::_Head_base.860" }
%"struct.std::_Head_base.860" = type { ptr }
%"class.std::vector.861" = type { %"struct.std::_Vector_base.862" }
%"struct.std::_Vector_base.862" = type { %"struct.std::_Vector_base<rocksdb::port::RWMutex, std::allocator<rocksdb::port::RWMutex>>::_Vector_impl" }
%"struct.std::_Vector_base<rocksdb::port::RWMutex, std::allocator<rocksdb::port::RWMutex>>::_Vector_impl" = type { %"struct.std::_Vector_base<rocksdb::port::RWMutex, std::allocator<rocksdb::port::RWMutex>>::_Vector_impl_data" }
%"struct.std::_Vector_base<rocksdb::port::RWMutex, std::allocator<rocksdb::port::RWMutex>>::_Vector_impl_data" = type { ptr, ptr, ptr }
%"class.std::unique_ptr.866" = type { %"struct.std::__uniq_ptr_data.867" }
%"struct.std::__uniq_ptr_data.867" = type { %"class.std::__uniq_ptr_impl.868" }
%"class.std::__uniq_ptr_impl.868" = type { %"class.std::tuple.869" }
%"class.std::tuple.869" = type { %"struct.std::_Tuple_impl.870" }
%"struct.std::_Tuple_impl.870" = type { %"struct.std::_Head_base.873" }
%"struct.std::_Head_base.873" = type { ptr }
%"struct.std::atomic.874" = type { i32 }
%"class.std::unordered_map.875" = type { %"class.std::_Hashtable.876" }
%"class.std::_Hashtable.876" = type { ptr, i64, %"struct.std::__detail::_Hash_node_base", i64, %"struct.std::__detail::_Prime_rehash_policy", ptr }
%"class.std::unique_ptr.893" = type { %"struct.std::__uniq_ptr_data.894" }
%"struct.std::__uniq_ptr_data.894" = type { %"class.std::__uniq_ptr_impl.895" }
%"class.std::__uniq_ptr_impl.895" = type { %"class.std::tuple.896" }
%"class.std::tuple.896" = type { %"struct.std::_Tuple_impl.897" }
%"struct.std::_Tuple_impl.897" = type { %"struct.std::_Head_base.900" }
%"struct.std::_Head_base.900" = type { ptr }
%"class.std::unique_ptr.901" = type { %"struct.std::__uniq_ptr_data.902" }
%"struct.std::__uniq_ptr_data.902" = type { %"class.std::__uniq_ptr_impl.903" }
%"class.std::__uniq_ptr_impl.903" = type { %"class.std::tuple.904" }
%"class.std::tuple.904" = type { %"struct.std::_Tuple_impl.905" }
%"struct.std::_Tuple_impl.905" = type { %"struct.std::_Head_base.908" }
%"struct.std::_Head_base.908" = type { ptr }
%"class.rocksdb::CoreLocalArray.909" = type <{ %"class.std::unique_ptr.910", i32, [4 x i8] }>
%"class.std::unique_ptr.910" = type { %"struct.std::__uniq_ptr_data.911" }
%"struct.std::__uniq_ptr_data.911" = type { %"class.std::__uniq_ptr_impl.912" }
%"class.std::__uniq_ptr_impl.912" = type { %"class.std::tuple.913" }
%"class.std::tuple.913" = type { %"struct.std::_Tuple_impl.914" }
%"struct.std::_Tuple_impl.914" = type { %"struct.std::_Head_base.917" }
%"struct.std::_Head_base.917" = type { ptr }

; Function Attrs: mustprogress nounwind uwtable
define linkonce_odr noundef i32 @_ZStanSt12memory_orderSt23__memory_order_modifier(i32 noundef %__m, i32 noundef %__mod) #1 comdat {
entry:
  %__m.addr = alloca i32, align 4
  %__mod.addr = alloca i32, align 4
  store i32 %__m, ptr %__m.addr, align 4
  store i32 %__mod, ptr %__mod.addr, align 4
  %0 = load i32, ptr %__m.addr, align 4
  %1 = load i32, ptr %__mod.addr, align 4
  %and = and i32 %0, %1
  ret i32 %and
}

; Function Attrs: mustprogress nounwind uwtable
define linkonce_odr noundef i64 @_ZN7rocksdb8MemTable25GetEarliestSequenceNumberEv(ptr noundef nonnull align 16 dereferenceable(3528) %this) #1 comdat align 2 {
entry:
  %this.addr.i = alloca ptr, align 8
  %__m.addr.i = alloca i32, align 4
  %__b.i = alloca i32, align 4
  %atomic-temp.i = alloca i64, align 8
  %this.addr = alloca ptr, align 8
  store ptr %this, ptr %this.addr, align 8
  %this1 = load ptr, ptr %this.addr, align 8
  %earliest_seqno_ = getelementptr inbounds %"class.rocksdb::MemTable", ptr %this1, i32 0, i32 20
  store ptr %earliest_seqno_, ptr %this.addr.i, align 8
  store i32 0, ptr %__m.addr.i, align 4
  %this1.i = load ptr, ptr %this.addr.i, align 8
  %0 = load i32, ptr %__m.addr.i, align 4
  %call.i = call noundef i32 @_ZStanSt12memory_orderSt23__memory_order_modifier(i32 noundef %0, i32 noundef 65535)
  store i32 %call.i, ptr %__b.i, align 4
  %1 = load i32, ptr %__m.addr.i, align 4
  switch i32 %1, label %monotonic.i [
    i32 1, label %acquire.i
    i32 2, label %acquire.i
    i32 5, label %seqcst.i
  ]

monotonic.i:                                      ; preds = %entry
  %2 = load atomic i64, ptr %this1.i monotonic, align 8
  store i64 %2, ptr %atomic-temp.i, align 8
  br label %_ZNKSt13__atomic_baseImE4loadESt12memory_order.exit

acquire.i:                                        ; preds = %entry, %entry
  %3 = load atomic i64, ptr %this1.i acquire, align 8
  store i64 %3, ptr %atomic-temp.i, align 8
  br label %_ZNKSt13__atomic_baseImE4loadESt12memory_order.exit

seqcst.i:                                         ; preds = %entry
  %4 = load atomic i64, ptr %this1.i seq_cst, align 8
  store i64 %4, ptr %atomic-temp.i, align 8
  br label %_ZNKSt13__atomic_baseImE4loadESt12memory_order.exit

_ZNKSt13__atomic_baseImE4loadESt12memory_order.exit: ; preds = %seqcst.i, %acquire.i, %monotonic.i
  %5 = load i64, ptr %atomic-temp.i, align 8
  ret i64 %5
}

; Function Attrs: mustprogress uwtable
define noundef i64 @_ZN7rocksdb6DBImpl33GetEarliestMemTableSequenceNumberEPNS_12SuperVersionEb(ptr noundef nonnull align 64 dereferenceable(6660) %this, ptr noundef %sv, i1 noundef zeroext %include_history) #0 align 2 {
entry:
  %this.addr = alloca ptr, align 8
  %sv.addr = alloca ptr, align 8
  %include_history.addr = alloca i8, align 1
  %earliest_seq = alloca i64, align 8
  store ptr %this, ptr %this.addr, align 8
  store ptr %sv, ptr %sv.addr, align 8
  %frombool = zext i1 %include_history to i8
  store i8 %frombool, ptr %include_history.addr, align 1
  %0 = load ptr, ptr %sv.addr, align 8
  %imm = getelementptr inbounds %"struct.rocksdb::SuperVersion", ptr %0, i32 0, i32 2
  %1 = load ptr, ptr %imm, align 8
  %2 = load i8, ptr %include_history.addr, align 1
  %tobool = trunc i8 %2 to i1
  %call = call noundef i64 @_ZNK7rocksdb19MemTableListVersion25GetEarliestSequenceNumberEb(ptr noundef nonnull align 8 dereferenceable(80) %1, i1 noundef zeroext %tobool)
  store i64 %call, ptr %earliest_seq, align 8
  %3 = load i64, ptr %earliest_seq, align 8
  %cmp = icmp eq i64 %3, 72057594037927935
  br i1 %cmp, label %if.then, label %if.end

if.then:                                          ; preds = %entry
  %4 = load ptr, ptr %sv.addr, align 8
  %mem = getelementptr inbounds %"struct.rocksdb::SuperVersion", ptr %4, i32 0, i32 1
  %5 = load ptr, ptr %mem, align 8
  %call2 = call noundef i64 @_ZN7rocksdb8MemTable25GetEarliestSequenceNumberEv(ptr noundef nonnull align 16 dereferenceable(3528) %5)
  store i64 %call2, ptr %earliest_seq, align 8
  br label %if.end

if.end:                                           ; preds = %if.then, %entry
  %6 = load i64, ptr %earliest_seq, align 8
  ret i64 %6
}