; Function Attrs: mustprogress uwtable
define noundef i64 @_ZN7rocksdb6DBImpl33GetEarliestMemTableSequenceNumberEPNS_12SuperVersionEb(ptr nocapture noundef nonnull readnone align 64 dereferenceable(6660) %this, ptr nocapture noundef readonly %sv, i1 noundef zeroext %include_history) local_unnamed_addr #5 align 2 {
entry:
  %imm = getelementptr inbounds i8, ptr %sv, i64 16
  %0 = load ptr, ptr %imm, align 8
  %call = tail call noundef i64 @_ZNK7rocksdb19MemTableListVersion25GetEarliestSequenceNumberEb(ptr noundef nonnull align 8 dereferenceable(80) %0, i1 noundef zeroext %include_history)
  %cmp = icmp eq i64 %call, 72057594037927935
  br i1 %cmp, label %if.then, label %if.end

if.then:                                          ; preds = %entry
  %mem = getelementptr inbounds i8, ptr %sv, i64 8
  %1 = load ptr, ptr %mem, align 8
  %earliest_seqno_.i = getelementptr inbounds i8, ptr %1, i64 3232
  %2 = load atomic i64, ptr %earliest_seqno_.i monotonic, align 8
  br label %if.end

if.end:                                           ; preds = %if.then, %entry
  %earliest_seq.0 = phi i64 [ %2, %if.then ], [ %call, %entry ]
  ret i64 %earliest_seq.0
}